target datalayout = "e-m:e-p270:32:32-p271:32:32-p272:64:64-i64:64-i128:128-f80:128-n8:16:32:64-S128"
target triple = "x86_64-pc-linux-gnu"

%"struct.duckdb::interval_t" = type { i32, i32, i64 }

; Function Attrs: mustprogress nounwind uwtable
define noundef i64 @_ZN6duckdb20RoundNumberToDivisorEll(i64 noundef %0, i64 noundef %1) #4 {
  %3 = alloca i64, align 8
  %4 = alloca i64, align 8
  store i64 %0, ptr %3, align 8, !tbaa !101
  store i64 %1, ptr %4, align 8, !tbaa !101
  %5 = load i64, ptr %3, align 8, !tbaa !101
  %6 = load i64, ptr %4, align 8, !tbaa !101
  %7 = sdiv i64 %6, 2
  %8 = add nsw i64 %5, %7
  %9 = load i64, ptr %4, align 8, !tbaa !101
  %10 = sdiv i64 %8, %9
  %11 = load i64, ptr %4, align 8, !tbaa !101
  %12 = mul nsw i64 %10, %11
  ret i64 %12
}

; Function Attrs: mustprogress nounwind uwtable
define { i64, i64 } @_ZN6duckdb16MakeIntervalNiceENS_10interval_tE(i64 %0, i64 %1) #4 {
  %3 = alloca %"struct.duckdb::interval_t", align 8
  %4 = alloca %"struct.duckdb::interval_t", align 8
  %5 = getelementptr inbounds nuw { i64, i64 }, ptr %4, i32 0, i32 0
  store i64 %0, ptr %5, align 8
  %6 = getelementptr inbounds nuw { i64, i64 }, ptr %4, i32 0, i32 1
  store i64 %1, ptr %6, align 8
  %7 = getelementptr inbounds nuw %"struct.duckdb::interval_t", ptr %4, i32 0, i32 0
  %8 = load i32, ptr %7, align 8, !tbaa !111
  %9 = icmp sge i32 %8, 6
  br i1 %9, label %10, label %13

10:                                               ; preds = %2
  %11 = getelementptr inbounds nuw %"struct.duckdb::interval_t", ptr %4, i32 0, i32 1
  store i32 0, ptr %11, align 4, !tbaa !113
  %12 = getelementptr inbounds nuw %"struct.duckdb::interval_t", ptr %4, i32 0, i32 2
  store i64 0, ptr %12, align 8, !tbaa !114
  br label %78

13:                                               ; preds = %2
  %14 = getelementptr inbounds nuw %"struct.duckdb::interval_t", ptr %4, i32 0, i32 0
  %15 = load i32, ptr %14, align 8, !tbaa !111
  %16 = icmp sgt i32 %15, 0
  br i1 %16, label %21, label %17

17:                                               ; preds = %13
  %18 = getelementptr inbounds nuw %"struct.duckdb::interval_t", ptr %4, i32 0, i32 1
  %19 = load i32, ptr %18, align 4, !tbaa !113
  %20 = icmp sge i32 %19, 5
  br i1 %20, label %21, label %23

21:                                               ; preds = %17, %13
  %22 = getelementptr inbounds nuw %"struct.duckdb::interval_t", ptr %4, i32 0, i32 2
  store i64 0, ptr %22, align 8, !tbaa !114
  br label %77

23:                                               ; preds = %17
  %24 = getelementptr inbounds nuw %"struct.duckdb::interval_t", ptr %4, i32 0, i32 1
  %25 = load i32, ptr %24, align 4, !tbaa !113
  %26 = icmp sgt i32 %25, 0
  br i1 %26, label %31, label %27

27:                                               ; preds = %23
  %28 = getelementptr inbounds nuw %"struct.duckdb::interval_t", ptr %4, i32 0, i32 2
  %29 = load i64, ptr %28, align 8, !tbaa !114
  %30 = icmp sge i64 %29, 21600000000
  br i1 %30, label %31, label %36

31:                                               ; preds = %27, %23
  %32 = getelementptr inbounds nuw %"struct.duckdb::interval_t", ptr %4, i32 0, i32 2
  %33 = load i64, ptr %32, align 8, !tbaa !114
  %34 = call noundef i64 @_ZN6duckdb20RoundNumberToDivisorEll(i64 noundef %33, i64 noundef 3600000000)
  %35 = getelementptr inbounds nuw %"struct.duckdb::interval_t", ptr %4, i32 0, i32 2
  store i64 %34, ptr %35, align 8, !tbaa !114
  br label %76

36:                                               ; preds = %27
  %37 = getelementptr inbounds nuw %"struct.duckdb::interval_t", ptr %4, i32 0, i32 2
  %38 = load i64, ptr %37, align 8, !tbaa !114
  %39 = icmp sge i64 %38, 3600000000
  br i1 %39, label %40, label %45

40:                                               ; preds = %36
  %41 = getelementptr inbounds nuw %"struct.duckdb::interval_t", ptr %4, i32 0, i32 2
  %42 = load i64, ptr %41, align 8, !tbaa !114
  %43 = call noundef i64 @_ZN6duckdb20RoundNumberToDivisorEll(i64 noundef %42, i64 noundef 900000000)
  %44 = getelementptr inbounds nuw %"struct.duckdb::interval_t", ptr %4, i32 0, i32 2
  store i64 %43, ptr %44, align 8, !tbaa !114
  br label %75

45:                                               ; preds = %36
  %46 = getelementptr inbounds nuw %"struct.duckdb::interval_t", ptr %4, i32 0, i32 2
  %47 = load i64, ptr %46, align 8, !tbaa !114
  %48 = icmp sge i64 %47, 600000000
  br i1 %48, label %49, label %54

49:                                               ; preds = %45
  %50 = getelementptr inbounds nuw %"struct.duckdb::interval_t", ptr %4, i32 0, i32 2
  %51 = load i64, ptr %50, align 8, !tbaa !114
  %52 = call noundef i64 @_ZN6duckdb20RoundNumberToDivisorEll(i64 noundef %51, i64 noundef 60000000)
  %53 = getelementptr inbounds nuw %"struct.duckdb::interval_t", ptr %4, i32 0, i32 2
  store i64 %52, ptr %53, align 8, !tbaa !114
  br label %74

54:                                               ; preds = %45
  %55 = getelementptr inbounds nuw %"struct.duckdb::interval_t", ptr %4, i32 0, i32 2
  %56 = load i64, ptr %55, align 8, !tbaa !114
  %57 = icmp sge i64 %56, 60000000
  br i1 %57, label %58, label %63

58:                                               ; preds = %54
  %59 = getelementptr inbounds nuw %"struct.duckdb::interval_t", ptr %4, i32 0, i32 2
  %60 = load i64, ptr %59, align 8, !tbaa !114
  %61 = call noundef i64 @_ZN6duckdb20RoundNumberToDivisorEll(i64 noundef %60, i64 noundef 15000000)
  %62 = getelementptr inbounds nuw %"struct.duckdb::interval_t", ptr %4, i32 0, i32 2
  store i64 %61, ptr %62, align 8, !tbaa !114
  br label %73

63:                                               ; preds = %54
  %64 = getelementptr inbounds nuw %"struct.duckdb::interval_t", ptr %4, i32 0, i32 2
  %65 = load i64, ptr %64, align 8, !tbaa !114
  %66 = icmp sge i64 %65, 10000000
  br i1 %66, label %67, label %72

67:                                               ; preds = %63
  %68 = getelementptr inbounds nuw %"struct.duckdb::interval_t", ptr %4, i32 0, i32 2
  %69 = load i64, ptr %68, align 8, !tbaa !114
  %70 = call noundef i64 @_ZN6duckdb20RoundNumberToDivisorEll(i64 noundef %69, i64 noundef 1000000)
  %71 = getelementptr inbounds nuw %"struct.duckdb::interval_t", ptr %4, i32 0, i32 2
  store i64 %70, ptr %71, align 8, !tbaa !114
  br label %72

72:                                               ; preds = %67, %63
  br label %73

73:                                               ; preds = %72, %58
  br label %74

74:                                               ; preds = %73, %49
  br label %75

75:                                               ; preds = %74, %40
  br label %76

76:                                               ; preds = %75, %31
  br label %77

77:                                               ; preds = %76, %21
  br label %78

78:                                               ; preds = %77, %10
  call void @llvm.memcpy.p0.p0.i64(ptr align 8 %3, ptr align 8 %4, i64 16, i1 false), !tbaa.struct !115
  %79 = load { i64, i64 }, ptr %3, align 8
  ret { i64, i64 } %79
}