; Function Attrs: mustprogress nofree norecurse nosync nounwind willreturn memory(none) uwtable
define { i64, i64 } @_ZN6duckdb16MakeIntervalNiceENS_10interval_tE(i64 %0, i64 %1) local_unnamed_addr #10 {
  %.sroa.0.sroa.0.0.extract.trunc = trunc i64 %0 to i32
  %.sroa.0.sroa.4.0.extract.shift = lshr i64 %0, 32
  %.sroa.0.sroa.4.0.extract.trunc = trunc nuw i64 %.sroa.0.sroa.4.0.extract.shift to i32
  %3 = icmp sgt i32 %.sroa.0.sroa.0.0.extract.trunc, 5
  br i1 %3, label %38, label %4

4:                                                ; preds = %2
  %5 = icmp sgt i32 %.sroa.0.sroa.0.0.extract.trunc, 0
  %6 = icmp sgt i32 %.sroa.0.sroa.4.0.extract.trunc, 4
  %or.cond = select i1 %5, i1 true, i1 %6
  br i1 %or.cond, label %38, label %7

7:                                                ; preds = %4
  %8 = icmp sgt i32 %.sroa.0.sroa.4.0.extract.trunc, 0
  %9 = icmp sgt i64 %1, 21599999999
  %or.cond5 = select i1 %8, i1 true, i1 %9
  br i1 %or.cond5, label %10, label %14

10:                                               ; preds = %7
  %11 = add nsw i64 %1, 1800000000
  %12 = srem i64 %11, 3600000000
  %13 = sub nsw i64 %11, %12
  br label %38

14:                                               ; preds = %7
  %15 = icmp sgt i64 %1, 3599999999
  br i1 %15, label %16, label %20

16:                                               ; preds = %14
  %17 = add nuw nsw i64 %1, 450000000
  %18 = urem i64 %17, 900000000
  %19 = sub nuw nsw i64 %17, %18
  br label %38

20:                                               ; preds = %14
  %21 = icmp sgt i64 %1, 599999999
  br i1 %21, label %22, label %26

22:                                               ; preds = %20
  %23 = add nuw nsw i64 %1, 30000000
  %.lhs.trunc = trunc i64 %23 to i32
  %24 = urem i32 %.lhs.trunc, 60000000
  %.zext = zext nneg i32 %24 to i64
  %25 = sub nuw nsw i64 %23, %.zext
  br label %38

26:                                               ; preds = %20
  %27 = icmp sgt i64 %1, 59999999
  br i1 %27, label %28, label %32

28:                                               ; preds = %26
  %29 = add nuw nsw i64 %1, 7500000
  %.lhs.trunc19 = trunc i64 %29 to i32
  %30 = urem i32 %.lhs.trunc19, 15000000
  %.zext20 = zext nneg i32 %30 to i64
  %31 = sub nuw nsw i64 %29, %.zext20
  br label %38

32:                                               ; preds = %26
  %33 = icmp sgt i64 %1, 9999999
  br i1 %33, label %34, label %38

34:                                               ; preds = %32
  %35 = add nuw nsw i64 %1, 500000
  %.lhs.trunc21 = trunc i64 %35 to i32
  %36 = urem i32 %.lhs.trunc21, 1000000
  %.zext22 = zext nneg i32 %36 to i64
  %37 = sub nuw nsw i64 %35, %.zext22
  br label %38

38:                                               ; preds = %4, %2, %16, %28, %34, %32, %22, %10
  %.sroa.0.sroa.4.0 = phi i64 [ %.sroa.0.sroa.4.0.extract.shift, %10 ], [ %.sroa.0.sroa.4.0.extract.shift, %16 ], [ %.sroa.0.sroa.4.0.extract.shift, %22 ], [ %.sroa.0.sroa.4.0.extract.shift, %28 ], [ %.sroa.0.sroa.4.0.extract.shift, %34 ], [ %.sroa.0.sroa.4.0.extract.shift, %32 ], [ 0, %2 ], [ %.sroa.0.sroa.4.0.extract.shift, %4 ]
  %.sroa.7.0 = phi i64 [ %13, %10 ], [ %19, %16 ], [ %25, %22 ], [ %31, %28 ], [ %37, %34 ], [ %1, %32 ], [ 0, %2 ], [ 0, %4 ]
  %.sroa.0.sroa.4.0.insert.shift = shl nuw i64 %.sroa.0.sroa.4.0, 32
  %.sroa.0.sroa.0.0.insert.ext = and i64 %0, 4294967295
  %.sroa.0.sroa.0.0.insert.insert = or disjoint i64 %.sroa.0.sroa.4.0.insert.shift, %.sroa.0.sroa.0.0.insert.ext
  %.fca.0.insert = insertvalue { i64, i64 } poison, i64 %.sroa.0.sroa.0.0.insert.insert, 0
  %.fca.1.insert = insertvalue { i64, i64 } %.fca.0.insert, i64 %.sroa.7.0, 1
  ret { i64, i64 } %.fca.1.insert
}